; Function Attrs: mustprogress uwtable
define void @_ZN6casadi2MX8einsteinERKS0_S2_RKSt6vectorIxSaIxEES7_S7_S7_S7_S7_(ptr dead_on_unwind noalias writable sret(%"class.casadi::MX") align 8 %0, ptr noundef nonnull align 8 dereferenceable(8) %1, ptr noundef nonnull align 8 dereferenceable(8) %2, ptr noundef nonnull align 8 dereferenceable(24) %3, ptr noundef nonnull align 8 dereferenceable(24) %4, ptr noundef nonnull align 8 dereferenceable(24) %5, ptr noundef nonnull align 8 dereferenceable(24) %6, ptr noundef nonnull align 8 dereferenceable(24) %7, ptr noundef nonnull align 8 dereferenceable(24) %8) local_unnamed_addr #3 align 2 personality ptr @__gxx_personality_v0 {
  %10 = alloca %"class.casadi::Sparsity", align 8
  %11 = alloca %"class.casadi::MX", align 8
  %12 = getelementptr inbounds i8, ptr %5, i64 8
  %13 = load ptr, ptr %12, align 8
  %14 = load ptr, ptr %5, align 8
  %.not.i = icmp eq ptr %13, %14
  br i1 %.not.i, label %_ZN6casadi7productIxEET_RKSt6vectorIS1_SaIS1_EE.exit, label %.lr.ph.preheader.i

.lr.ph.preheader.i:                               ; preds = %9
  %15 = ptrtoint ptr %13 to i64
  %16 = ptrtoint ptr %14 to i64
  %17 = sub i64 %15, %16
  %18 = ashr exact i64 %17, 3
  %umax.i = tail call i64 @llvm.umax.i64(i64 %18, i64 1)
  br label %.lr.ph.i

.lr.ph.i:                                         ; preds = %.lr.ph.i, %.lr.ph.preheader.i
  %.08.i = phi i64 [ %22, %.lr.ph.i ], [ 0, %.lr.ph.preheader.i ]
  %.067.i = phi i64 [ %21, %.lr.ph.i ], [ 1, %.lr.ph.preheader.i ]
  %19 = getelementptr inbounds i64, ptr %14, i64 %.08.i
  %20 = load i64, ptr %19, align 8
  %21 = mul nsw i64 %20, %.067.i
  %22 = add nuw nsw i64 %.08.i, 1
  %exitcond.not.i = icmp eq i64 %22, %umax.i
  br i1 %exitcond.not.i, label %_ZN6casadi7productIxEET_RKSt6vectorIS1_SaIS1_EE.exit, label %.lr.ph.i, !llvm.loop !457

_ZN6casadi7productIxEET_RKSt6vectorIS1_SaIS1_EE.exit: ; preds = %.lr.ph.i, %9
  %.06.lcssa.i = phi i64 [ 1, %9 ], [ %21, %.lr.ph.i ]
  call void @llvm.lifetime.start.p0(i64 8, ptr nonnull %10)
  call void @_ZN6casadi8Sparsity5denseExx(ptr dead_on_unwind nonnull writable sret(%"class.casadi::Sparsity") align 8 %10, i64 noundef %.06.lcssa.i, i64 noundef 1), !noalias !458
  invoke void @_ZN6casadi2MXC1ERKNS_8SparsityEdb(ptr noundef nonnull align 8 dereferenceable(8) %11, ptr noundef nonnull align 8 dereferenceable(8) %10, double noundef 0.000000e+00, i1 noundef zeroext false)
          to label %_ZN6casadi13GenericMatrixINS_2MXEE5zerosExx.exit unwind label %23

common.resume:                                    ; preds = %30, %23
  %common.resume.op = phi { ptr, i32 } [ %24, %23 ], [ %31, %30 ]
  resume { ptr, i32 } %common.resume.op

23:                                               ; preds = %_ZN6casadi7productIxEET_RKSt6vectorIS1_SaIS1_EE.exit
  %24 = landingpad { ptr, i32 }
          cleanup
  call void @_ZN6casadi12SharedObjectD2Ev(ptr noundef nonnull align 8 dereferenceable(8) %10) #27
  br label %common.resume

_ZN6casadi13GenericMatrixINS_2MXEE5zerosExx.exit: ; preds = %_ZN6casadi7productIxEET_RKSt6vectorIS1_SaIS1_EE.exit
  call void @_ZN6casadi12SharedObjectD2Ev(ptr noundef nonnull align 8 dereferenceable(8) %10) #27
  call void @llvm.lifetime.end.p0(i64 8, ptr nonnull %10)
  %25 = invoke noundef ptr @_ZNK6casadi12SharedObjectptEv(ptr noundef nonnull align 8 dereferenceable(8) %11)
          to label %_ZN6casadi2MXptEv.exit unwind label %30

_ZN6casadi2MXptEv.exit:                           ; preds = %_ZN6casadi13GenericMatrixINS_2MXEE5zerosExx.exit
  %26 = load ptr, ptr %25, align 8
  %27 = getelementptr inbounds i8, ptr %26, i64 544
  %28 = load ptr, ptr %27, align 8
  invoke void %28(ptr dead_on_unwind writable sret(%"class.casadi::MX") align 8 %0, ptr noundef nonnull align 8 dereferenceable(64) %25, ptr noundef nonnull align 8 dereferenceable(8) %1, ptr noundef nonnull align 8 dereferenceable(8) %2, ptr noundef nonnull align 8 dereferenceable(24) %5, ptr noundef nonnull align 8 dereferenceable(24) %3, ptr noundef nonnull align 8 dereferenceable(24) %4, ptr noundef nonnull align 8 dereferenceable(24) %8, ptr noundef nonnull align 8 dereferenceable(24) %6, ptr noundef nonnull align 8 dereferenceable(24) %7)
          to label %29 unwind label %30

29:                                               ; preds = %_ZN6casadi2MXptEv.exit
  call void @_ZN6casadi2MXD1Ev(ptr noundef nonnull align 8 dereferenceable(8) %11) #27
  ret void

30:                                               ; preds = %_ZN6casadi13GenericMatrixINS_2MXEE5zerosExx.exit, %_ZN6casadi2MXptEv.exit
  %31 = landingpad { ptr, i32 }
          cleanup
  call void @_ZN6casadi2MXD1Ev(ptr noundef nonnull align 8 dereferenceable(8) %11) #27
  br label %common.resume
}